; Function Attrs: mustprogress uwtable
define void @_ZN18OpenImageIO_v2_6_014ParamValueList14add_or_replaceEONS_10ParamValueEb(ptr noundef nonnull align 8 dereferenceable(24) %this, ptr noundef nonnull align 8 dereferenceable(39) %pv, i1 noundef zeroext %casesensitive) local_unnamed_addr #10 align 2 personality ptr @__gxx_personality_v0 {
entry:
  %agg.tmp = alloca %"class.OpenImageIO_v2_6_0::ustring", align 8
  %agg.tmp2 = alloca %"struct.OpenImageIO_v2_6_0::TypeDesc", align 4
  %0 = load ptr, ptr %pv, align 8
  store ptr %0, ptr %agg.tmp, align 8
  store <4 x i8> <i8 0, i8 1, i8 0, i8 0>, ptr %agg.tmp2, align 4
  %arraylen.i = getelementptr inbounds i8, ptr %agg.tmp2, i64 4
  store i32 0, ptr %arraylen.i, align 4
  %call3 = call ptr @_ZN18OpenImageIO_v2_6_014ParamValueList4findENS_7ustringENS_8TypeDescEb(ptr noundef nonnull align 8 dereferenceable(24) %this, ptr noundef nonnull %agg.tmp, ptr noundef nonnull %agg.tmp2, i1 noundef zeroext %casesensitive)
  %_M_finish.i = getelementptr inbounds i8, ptr %this, i64 8
  %1 = load ptr, ptr %_M_finish.i, align 8
  %cmp.i.not = icmp eq ptr %call3, %1
  br i1 %cmp.i.not, label %if.else, label %if.then

if.then:                                          ; preds = %entry
  %call8 = tail call noundef nonnull align 8 dereferenceable(39) ptr @_ZN18OpenImageIO_v2_6_010ParamValueaSERKS0_(ptr noundef nonnull align 8 dereferenceable(39) %call3, ptr noundef nonnull align 8 dereferenceable(39) %pv) #24
  br label %if.end

if.else:                                          ; preds = %entry
  %_M_end_of_storage.i = getelementptr inbounds i8, ptr %this, i64 16
  %2 = load ptr, ptr %_M_end_of_storage.i, align 8
  %cmp.not.i = icmp eq ptr %call3, %2
  br i1 %cmp.not.i, label %if.else.i, label %if.then.i

if.then.i:                                        ; preds = %if.else
  tail call void @_ZNSt15__new_allocatorIN18OpenImageIO_v2_6_010ParamValueEE9constructIS1_JRS1_EEEvPT_DpOT0_(ptr noundef nonnull align 1 dereferenceable(1) %this, ptr noundef %call3, ptr noundef nonnull align 8 dereferenceable(39) %pv) #24
  %3 = load ptr, ptr %_M_finish.i, align 8
  %incdec.ptr.i = getelementptr inbounds i8, ptr %3, i64 40
  store ptr %incdec.ptr.i, ptr %_M_finish.i, align 8
  br label %if.end

if.else.i:                                        ; preds = %if.else
  tail call void @_ZNSt6vectorIN18OpenImageIO_v2_6_010ParamValueESaIS1_EE17_M_realloc_insertIJRS1_EEEvN9__gnu_cxx17__normal_iteratorIPS1_S3_EEDpOT_(ptr noundef nonnull align 8 dereferenceable(24) %this, ptr %call3, ptr noundef nonnull align 8 dereferenceable(39) %pv)
  br label %if.end

if.end:                                           ; preds = %if.else.i, %if.then.i, %if.then
  ret void
}